; Function Attrs: nounwind uwtable
define ptr @Hop_Multi_rec(ptr noundef %0, ptr noundef %1, i32 noundef %2, i32 noundef %3) local_unnamed_addr #0 {
  %5 = icmp eq i32 %2, 1
  br i1 %5, label %common.ret, label %7

common.ret:                                       ; preds = %4
  %6 = load ptr, ptr %1, align 8, !tbaa !24
  br label %common.ret17

common.ret17:                                     ; preds = %7, %common.ret
  %common.ret17.op = phi ptr [ %6, %common.ret ], [ %14, %7 ]
  ret ptr %common.ret17.op

7:                                                ; preds = %4
  %8 = sdiv i32 %2, 2
  %9 = tail call ptr @Hop_Multi_rec(ptr noundef %0, ptr noundef %1, i32 noundef %8, i32 noundef %3)
  %10 = sext i32 %8 to i64
  %11 = getelementptr inbounds ptr, ptr %1, i64 %10
  %12 = sub nsw i32 %2, %8
  %13 = tail call ptr @Hop_Multi_rec(ptr noundef %0, ptr noundef %11, i32 noundef %12, i32 noundef %3)
  %14 = tail call ptr @Hop_Oper(ptr noundef %0, ptr noundef %9, ptr noundef %13, i32 noundef %3)
  br label %common.ret17
}